target datalayout = "e-m:e-p270:32:32-p271:32:32-p272:64:64-i64:64-i128:128-f80:128-n8:16:32:64-S128"
target triple = "x86_64-pc-linux-gnu"

%struct.expert_field = type { i32, i32 }

@hf_ssh_userauth_pka_name_len = internal global i32 0, align 4
@hf_ssh_userauth_pka_name = internal global i32 0, align 4
@hf_ssh_blob_length = internal global i32 0, align 4
@ett_userauth_pk_blob = internal global i32 0, align 4
@ei_ssh_packet_decode = internal global %struct.expert_field zeroinitializer, align 4
@.str.494 = private unnamed_addr constant [48 x i8] c"Decoded %d bytes, but packet length is %d bytes\00", align 1
@.str.539 = private unnamed_addr constant [16 x i8] c"Public key blob\00", align 1

; Function Attrs: nounwind uwtable
define internal i32 @ssh_dissect_userauth_specific(ptr noundef %0, ptr noundef %1, i32 noundef %2, ptr noundef %3, i32 noundef %4) #0 {
  %6 = alloca ptr, align 8
  %7 = alloca ptr, align 8
  %8 = alloca i32, align 4
  %9 = alloca ptr, align 8
  %10 = alloca i32, align 4
  %11 = alloca ptr, align 8
  %12 = alloca i32, align 4
  %13 = alloca i32, align 4
  %14 = alloca ptr, align 8
  store ptr %0, ptr %6, align 8
  store ptr %1, ptr %7, align 8
  store i32 %2, ptr %8, align 4
  store ptr %3, ptr %9, align 8
  store i32 %4, ptr %10, align 4
  %15 = load i32, ptr %10, align 4
  %16 = icmp eq i32 %15, 60
  br i1 %16, label %17, label %73

17:                                               ; preds = %5
  store i32 0, ptr %12, align 4
  %18 = load ptr, ptr %6, align 8
  %19 = load i32, ptr %8, align 4
  %20 = call i32 @tvb_get_ntohl(ptr noundef %18, i32 noundef %19)
  store i32 %20, ptr %13, align 4
  %21 = load ptr, ptr %9, align 8
  %22 = load i32, ptr @hf_ssh_userauth_pka_name_len, align 4
  %23 = load ptr, ptr %6, align 8
  %24 = load i32, ptr %8, align 4
  %25 = call ptr @proto_tree_add_item(ptr noundef %21, i32 noundef %22, ptr noundef %23, i32 noundef %24, i32 noundef 4, i32 noundef 0)
  %26 = load i32, ptr %8, align 4
  %27 = add i32 %26, 4
  store i32 %27, ptr %8, align 4
  %28 = load ptr, ptr %9, align 8
  %29 = load i32, ptr @hf_ssh_userauth_pka_name, align 4
  %30 = load ptr, ptr %6, align 8
  %31 = load i32, ptr %8, align 4
  %32 = load i32, ptr %13, align 4
  %33 = call ptr @proto_tree_add_item(ptr noundef %28, i32 noundef %29, ptr noundef %30, i32 noundef %31, i32 noundef %32, i32 noundef 0)
  %34 = load i32, ptr %13, align 4
  %35 = load i32, ptr %8, align 4
  %36 = add i32 %35, %34
  store i32 %36, ptr %8, align 4
  store ptr null, ptr %14, align 8
  %37 = load ptr, ptr %6, align 8
  %38 = load i32, ptr %8, align 4
  %39 = call i32 @tvb_get_ntohl(ptr noundef %37, i32 noundef %38)
  store i32 %39, ptr %13, align 4
  %40 = load ptr, ptr %9, align 8
  %41 = load i32, ptr @hf_ssh_blob_length, align 4
  %42 = load ptr, ptr %6, align 8
  %43 = load i32, ptr %8, align 4
  %44 = call ptr @proto_tree_add_item(ptr noundef %40, i32 noundef %41, ptr noundef %42, i32 noundef %43, i32 noundef 4, i32 noundef 0)
  store ptr %44, ptr %11, align 8
  %45 = load i32, ptr %8, align 4
  %46 = add i32 %45, 4
  store i32 %46, ptr %8, align 4
  %47 = load ptr, ptr %9, align 8
  %48 = load ptr, ptr %6, align 8
  %49 = load i32, ptr %8, align 4
  %50 = load i32, ptr %13, align 4
  %51 = load i32, ptr @ett_userauth_pk_blob, align 4
  %52 = call ptr @proto_tree_add_subtree(ptr noundef %47, ptr noundef %48, i32 noundef %49, i32 noundef %50, i32 noundef %51, ptr noundef null, ptr noundef @.str.539)
  store ptr %52, ptr %14, align 8
  %53 = load ptr, ptr %6, align 8
  %54 = load ptr, ptr %7, align 8
  %55 = load i32, ptr %8, align 4
  %56 = load ptr, ptr %14, align 8
  %57 = call i32 @ssh_dissect_public_key_blob(ptr noundef %53, ptr noundef %54, i32 noundef %55, ptr noundef %56)
  %58 = load i32, ptr %8, align 4
  %59 = sub i32 %57, %58
  store i32 %59, ptr %12, align 4
  %60 = load i32, ptr %12, align 4
  %61 = load i32, ptr %13, align 4
  %62 = icmp ne i32 %60, %61
  br i1 %62, label %63, label %69

63:                                               ; preds = %17
  %64 = load ptr, ptr %7, align 8
  %65 = load ptr, ptr %11, align 8
  %66 = load i32, ptr %12, align 4
  %67 = load i32, ptr %13, align 4
  %68 = call ptr (ptr, ptr, ptr, ptr, ...) @expert_add_info_format(ptr noundef %64, ptr noundef %65, ptr noundef @ei_ssh_packet_decode, ptr noundef @.str.494, i32 noundef %66, i32 noundef %67)
  br label %69

69:                                               ; preds = %63, %17
  %70 = load i32, ptr %13, align 4
  %71 = load i32, ptr %8, align 4
  %72 = add i32 %71, %70
  store i32 %72, ptr %8, align 4
  br label %73

73:                                               ; preds = %69, %5
  %74 = load i32, ptr %8, align 4
  ret i32 %74
}