; Function Attrs: nounwind uwtable
define internal fastcc i32 @ssh_dissect_userauth_specific(ptr noundef %0, ptr noundef %1, ptr noundef %2, i32 noundef range(i32 60, 80) %3) unnamed_addr #0 {
  %5 = icmp eq i32 %3, 60
  br i1 %5, label %6, label %25

6:                                                ; preds = %4
  %7 = tail call i32 @tvb_get_ntohl(ptr noundef %0, i32 noundef 6) #21
  %8 = load i32, ptr @hf_ssh_userauth_pka_name_len, align 4
  %9 = tail call ptr @proto_tree_add_item(ptr noundef %2, i32 noundef %8, ptr noundef %0, i32 noundef 6, i32 noundef 4, i32 noundef 0) #21
  %10 = load i32, ptr @hf_ssh_userauth_pka_name, align 4
  %11 = tail call ptr @proto_tree_add_item(ptr noundef %2, i32 noundef %10, ptr noundef %0, i32 noundef 10, i32 noundef %7, i32 noundef 0) #21
  %12 = add i32 %7, 10
  %13 = tail call i32 @tvb_get_ntohl(ptr noundef %0, i32 noundef %12) #21
  %14 = load i32, ptr @hf_ssh_blob_length, align 4
  %15 = tail call ptr @proto_tree_add_item(ptr noundef %2, i32 noundef %14, ptr noundef %0, i32 noundef %12, i32 noundef 4, i32 noundef 0) #21
  %16 = add i32 %7, 14
  %17 = load i32, ptr @ett_userauth_pk_blob, align 4
  %18 = tail call ptr @proto_tree_add_subtree(ptr noundef %2, ptr noundef %0, i32 noundef %16, i32 noundef %13, i32 noundef %17, ptr noundef null, ptr noundef nonnull @.str.539) #21
  %19 = tail call fastcc i32 @ssh_dissect_public_key_blob(ptr noundef %0, i32 noundef %16, ptr noundef %18)
  %20 = sub i32 %19, %16
  %.not = icmp eq i32 %20, %13
  br i1 %.not, label %23, label %21

21:                                               ; preds = %6
  %22 = tail call ptr (ptr, ptr, ptr, ptr, ...) @expert_add_info_format(ptr noundef %1, ptr noundef %15, ptr noundef nonnull @ei_ssh_packet_decode, ptr noundef nonnull @.str.494, i32 noundef %20, i32 noundef %13) #21
  br label %23

23:                                               ; preds = %21, %6
  %24 = add i32 %13, %16
  br label %25

25:                                               ; preds = %23, %4
  %.0 = phi i32 [ %24, %23 ], [ 6, %4 ]
  ret i32 %.0
}